target datalayout = "e-m:e-p270:32:32-p271:32:32-p272:64:64-i64:64-i128:128-f80:128-n8:16:32:64-S128"
target triple = "x86_64-pc-linux-gnu"

%"struct.LightGBM::Tree::PathElement" = type { i32, double, double, double }

; Function Attrs: mustprogress nounwind uwtable
define void @_ZN8LightGBM4Tree10ExtendPathEPNS0_11PathElementEiddi(ptr noundef %0, i32 noundef %1, double noundef %2, double noundef %3, i32 noundef %4) #0 align 2 {
  %6 = alloca ptr, align 8
  %7 = alloca i32, align 4
  %8 = alloca double, align 8
  %9 = alloca double, align 8
  %10 = alloca i32, align 4
  %11 = alloca i32, align 4
  store ptr %0, ptr %6, align 8, !tbaa !1531
  store i32 %1, ptr %7, align 4, !tbaa !13
  store double %2, ptr %8, align 8, !tbaa !57
  store double %3, ptr %9, align 8, !tbaa !57
  store i32 %4, ptr %10, align 4, !tbaa !13
  %12 = load i32, ptr %10, align 4, !tbaa !13
  %13 = load ptr, ptr %6, align 8, !tbaa !1531
  %14 = load i32, ptr %7, align 4, !tbaa !13
  %15 = sext i32 %14 to i64
  %16 = getelementptr inbounds %"struct.LightGBM::Tree::PathElement", ptr %13, i64 %15
  %17 = getelementptr inbounds nuw %"struct.LightGBM::Tree::PathElement", ptr %16, i32 0, i32 0
  store i32 %12, ptr %17, align 8, !tbaa !1533
  %18 = load double, ptr %8, align 8, !tbaa !57
  %19 = load ptr, ptr %6, align 8, !tbaa !1531
  %20 = load i32, ptr %7, align 4, !tbaa !13
  %21 = sext i32 %20 to i64
  %22 = getelementptr inbounds %"struct.LightGBM::Tree::PathElement", ptr %19, i64 %21
  %23 = getelementptr inbounds nuw %"struct.LightGBM::Tree::PathElement", ptr %22, i32 0, i32 1
  store double %18, ptr %23, align 8, !tbaa !1535
  %24 = load double, ptr %9, align 8, !tbaa !57
  %25 = load ptr, ptr %6, align 8, !tbaa !1531
  %26 = load i32, ptr %7, align 4, !tbaa !13
  %27 = sext i32 %26 to i64
  %28 = getelementptr inbounds %"struct.LightGBM::Tree::PathElement", ptr %25, i64 %27
  %29 = getelementptr inbounds nuw %"struct.LightGBM::Tree::PathElement", ptr %28, i32 0, i32 2
  store double %24, ptr %29, align 8, !tbaa !1536
  %30 = load i32, ptr %7, align 4, !tbaa !13
  %31 = icmp eq i32 %30, 0
  %32 = select i1 %31, i32 1, i32 0
  %33 = sitofp i32 %32 to double
  %34 = load ptr, ptr %6, align 8, !tbaa !1531
  %35 = load i32, ptr %7, align 4, !tbaa !13
  %36 = sext i32 %35 to i64
  %37 = getelementptr inbounds %"struct.LightGBM::Tree::PathElement", ptr %34, i64 %36
  %38 = getelementptr inbounds nuw %"struct.LightGBM::Tree::PathElement", ptr %37, i32 0, i32 3
  store double %33, ptr %38, align 8, !tbaa !1537
  call void @llvm.lifetime.start.p0(i64 4, ptr %11) #7
  %39 = load i32, ptr %7, align 4, !tbaa !13
  %40 = sub nsw i32 %39, 1
  store i32 %40, ptr %11, align 4, !tbaa !13
  br label %41

41:                                               ; preds = %92, %5
  %42 = load i32, ptr %11, align 4, !tbaa !13
  %43 = icmp sge i32 %42, 0
  br i1 %43, label %45, label %44

44:                                               ; preds = %41
  call void @llvm.lifetime.end.p0(i64 4, ptr %11) #7
  br label %95

45:                                               ; preds = %41
  %46 = load double, ptr %9, align 8, !tbaa !57
  %47 = load ptr, ptr %6, align 8, !tbaa !1531
  %48 = load i32, ptr %11, align 4, !tbaa !13
  %49 = sext i32 %48 to i64
  %50 = getelementptr inbounds %"struct.LightGBM::Tree::PathElement", ptr %47, i64 %49
  %51 = getelementptr inbounds nuw %"struct.LightGBM::Tree::PathElement", ptr %50, i32 0, i32 3
  %52 = load double, ptr %51, align 8, !tbaa !1537
  %53 = fmul double %46, %52
  %54 = load i32, ptr %11, align 4, !tbaa !13
  %55 = add nsw i32 %54, 1
  %56 = sitofp i32 %55 to double
  %57 = fmul double %53, %56
  %58 = load i32, ptr %7, align 4, !tbaa !13
  %59 = add nsw i32 %58, 1
  %60 = sitofp i32 %59 to double
  %61 = fdiv double %57, %60
  %62 = load ptr, ptr %6, align 8, !tbaa !1531
  %63 = load i32, ptr %11, align 4, !tbaa !13
  %64 = add nsw i32 %63, 1
  %65 = sext i32 %64 to i64
  %66 = getelementptr inbounds %"struct.LightGBM::Tree::PathElement", ptr %62, i64 %65
  %67 = getelementptr inbounds nuw %"struct.LightGBM::Tree::PathElement", ptr %66, i32 0, i32 3
  %68 = load double, ptr %67, align 8, !tbaa !1537
  %69 = fadd double %68, %61
  store double %69, ptr %67, align 8, !tbaa !1537
  %70 = load double, ptr %8, align 8, !tbaa !57
  %71 = load ptr, ptr %6, align 8, !tbaa !1531
  %72 = load i32, ptr %11, align 4, !tbaa !13
  %73 = sext i32 %72 to i64
  %74 = getelementptr inbounds %"struct.LightGBM::Tree::PathElement", ptr %71, i64 %73
  %75 = getelementptr inbounds nuw %"struct.LightGBM::Tree::PathElement", ptr %74, i32 0, i32 3
  %76 = load double, ptr %75, align 8, !tbaa !1537
  %77 = fmul double %70, %76
  %78 = load i32, ptr %7, align 4, !tbaa !13
  %79 = load i32, ptr %11, align 4, !tbaa !13
  %80 = sub nsw i32 %78, %79
  %81 = sitofp i32 %80 to double
  %82 = fmul double %77, %81
  %83 = load i32, ptr %7, align 4, !tbaa !13
  %84 = add nsw i32 %83, 1
  %85 = sitofp i32 %84 to double
  %86 = fdiv double %82, %85
  %87 = load ptr, ptr %6, align 8, !tbaa !1531
  %88 = load i32, ptr %11, align 4, !tbaa !13
  %89 = sext i32 %88 to i64
  %90 = getelementptr inbounds %"struct.LightGBM::Tree::PathElement", ptr %87, i64 %89
  %91 = getelementptr inbounds nuw %"struct.LightGBM::Tree::PathElement", ptr %90, i32 0, i32 3
  store double %86, ptr %91, align 8, !tbaa !1537
  br label %92

92:                                               ; preds = %45
  %93 = load i32, ptr %11, align 4, !tbaa !13
  %94 = add nsw i32 %93, -1
  store i32 %94, ptr %11, align 4, !tbaa !13
  br label %41, !llvm.loop !1538

95:                                               ; preds = %44
  ret void
}