; Function Attrs: mustprogress nofree norecurse nosync nounwind memory(argmem: readwrite) uwtable
define void @_ZN8LightGBM4Tree10ExtendPathEPNS0_11PathElementEiddi(ptr noundef captures(none) %0, i32 noundef %1, double noundef %2, double noundef %3, i32 noundef %4) local_unnamed_addr #34 align 2 {
  %6 = sext i32 %1 to i64
  %7 = getelementptr inbounds %"struct.LightGBM::Tree::PathElement", ptr %0, i64 %6
  store i32 %4, ptr %7, align 8, !tbaa !1054
  %8 = getelementptr inbounds nuw i8, ptr %7, i64 8
  store double %2, ptr %8, align 8, !tbaa !1056
  %9 = getelementptr inbounds nuw i8, ptr %7, i64 16
  store double %3, ptr %9, align 8, !tbaa !1057
  %10 = icmp eq i32 %1, 0
  %11 = uitofp i1 %10 to double
  %12 = getelementptr inbounds nuw i8, ptr %7, i64 24
  store double %11, ptr %12, align 8, !tbaa !1058
  %13 = icmp sgt i32 %1, 0
  br i1 %13, label %.lr.ph, label %._crit_edge

.lr.ph:                                           ; preds = %5
  %14 = add nuw nsw i32 %1, 1
  %15 = uitofp nneg i32 %14 to double
  %16 = zext nneg i32 %1 to i64
  %.phi.trans.insert = getelementptr inbounds nuw %"struct.LightGBM::Tree::PathElement", ptr %0, i64 %16, i32 3
  %.pre = load double, ptr %.phi.trans.insert, align 8, !tbaa !1058
  br label %17

._crit_edge:                                      ; preds = %17, %5
  ret void

17:                                               ; preds = %.lr.ph, %17
  %18 = phi double [ %.pre, %.lr.ph ], [ %33, %17 ]
  %indvars.iv = phi i64 [ %16, %.lr.ph ], [ %indvars.iv.next, %17 ]
  %indvars.iv.next = add nsw i64 %indvars.iv, -1
  %19 = getelementptr inbounds nuw %"struct.LightGBM::Tree::PathElement", ptr %0, i64 %indvars.iv.next, i32 3
  %20 = load double, ptr %19, align 8, !tbaa !1058
  %21 = fmul double %3, %20
  %22 = trunc nuw nsw i64 %indvars.iv to i32
  %23 = uitofp nneg i32 %22 to double
  %24 = fmul double %21, %23
  %25 = fdiv double %24, %15
  %26 = getelementptr inbounds nuw %"struct.LightGBM::Tree::PathElement", ptr %0, i64 %indvars.iv, i32 3
  %27 = fadd double %18, %25
  store double %27, ptr %26, align 8, !tbaa !1058
  %28 = fmul double %2, %20
  %29 = trunc i64 %indvars.iv.next to i32
  %30 = sub i32 %1, %29
  %31 = sitofp i32 %30 to double
  %32 = fmul double %28, %31
  %33 = fdiv double %32, %15
  store double %33, ptr %19, align 8, !tbaa !1058
  %34 = icmp samesign ugt i64 %indvars.iv, 1
  br i1 %34, label %17, label %._crit_edge, !llvm.loop !1059
}